; Function Attrs: nounwind sspstrong uwtable
define internal fastcc i64 @r_leave(i64 noundef %0, ptr noundef readonly captures(none) %1, i1 noundef zeroext %2) unnamed_addr #0 {
  %4 = alloca i64, align 8
  %5 = alloca i64, align 8
  %6 = alloca i64, align 8
  %7 = getelementptr i8, ptr %1, i64 72
  %.val = load ptr, ptr %7, align 8, !tbaa !54
  %8 = tail call fastcc i64 @r_fixup_compat(i64 noundef %0, ptr %.val)
  br i1 %2, label %36, label %9

9:                                                ; preds = %3
  call void @llvm.lifetime.start.p0(i64 8, ptr nonnull %5) #22
  call void @llvm.lifetime.start.p0(i64 8, ptr nonnull %6) #22
  store i64 %8, ptr %6, align 8, !tbaa !7
  %10 = getelementptr inbounds nuw i8, ptr %1, i64 56
  %11 = load ptr, ptr %10, align 8, !tbaa !49
  %12 = call i32 @rb_st_delete(ptr noundef %11, ptr noundef nonnull %6, ptr noundef nonnull %5) #22
  %13 = getelementptr inbounds nuw i8, ptr %1, i64 80
  %14 = load i8, ptr %13, align 8, !tbaa !51, !range !160, !noundef !161
  %15 = trunc nuw i8 %14 to i1
  br i1 %15, label %16, label %26

16:                                               ; preds = %9
  %17 = icmp eq i64 %8, 0
  %18 = and i64 %8, 7
  %19 = icmp ne i64 %18, 0
  %20 = or i1 %17, %19
  br i1 %20, label %rbimpl_RB_TYPE_P_fastpath.exit.thread, label %rbimpl_RB_TYPE_P_fastpath.exit16

rbimpl_RB_TYPE_P_fastpath.exit16:                 ; preds = %16
  %21 = inttoptr i64 %8 to ptr
  %22 = load i64, ptr %21, align 8, !tbaa !56
  %23 = and i64 %22, 31
  switch i64 %23, label %rbimpl_RB_TYPE_P_fastpath.exit.thread [
    i64 3, label %26
    i64 2, label %26
    i64 5, label %24
  ]

24:                                               ; preds = %rbimpl_RB_TYPE_P_fastpath.exit16
  %25 = call i64 @rb_str_to_interned_str(i64 noundef %8) #22
  br label %26

rbimpl_RB_TYPE_P_fastpath.exit.thread:            ; preds = %rbimpl_RB_TYPE_P_fastpath.exit16, %16
  call void @rb_obj_freeze_inline(i64 noundef %8) #22
  br label %26

26:                                               ; preds = %rbimpl_RB_TYPE_P_fastpath.exit16, %rbimpl_RB_TYPE_P_fastpath.exit16, %rbimpl_RB_TYPE_P_fastpath.exit.thread, %24, %9
  %.1 = phi i64 [ %8, %rbimpl_RB_TYPE_P_fastpath.exit16 ], [ %25, %24 ], [ %8, %rbimpl_RB_TYPE_P_fastpath.exit.thread ], [ %8, %9 ], [ %8, %rbimpl_RB_TYPE_P_fastpath.exit16 ]
  call void @llvm.lifetime.start.p0(i64 8, ptr nonnull %4)
  store i64 %.1, ptr %4, align 8, !tbaa !7
  %27 = getelementptr inbounds nuw i8, ptr %1, i64 64
  %28 = load i64, ptr %27, align 8, !tbaa !53
  %.not.i = icmp eq i64 %28, 0
  br i1 %.not.i, label %r_post_proc.exit, label %29

29:                                               ; preds = %26
  %30 = load i64, ptr @s_call, align 8, !tbaa !7
  %31 = call i64 @rb_funcallv(i64 noundef %28, i64 noundef %30, i32 noundef 1, ptr noundef nonnull %4) #22
  %32 = getelementptr i8, ptr %1, i64 40
  %.val.i = load ptr, ptr %32, align 8, !tbaa !47
  %.not.i.i = icmp eq ptr %.val.i, null
  br i1 %.not.i.i, label %33, label %r_post_proc.exit

33:                                               ; preds = %29
  %34 = load i64, ptr @rb_eRuntimeError, align 8, !tbaa !7
  call void (i64, ptr, ...) @rb_raise(i64 noundef %34, ptr noundef nonnull @.str.22, ptr noundef nonnull @.str.11) #23
  unreachable

r_post_proc.exit:                                 ; preds = %26, %29
  %35 = phi i64 [ %.1, %26 ], [ %31, %29 ]
  call void @llvm.lifetime.end.p0(i64 8, ptr nonnull %4)
  call void @llvm.lifetime.end.p0(i64 8, ptr nonnull %6) #22
  call void @llvm.lifetime.end.p0(i64 8, ptr nonnull %5) #22
  br label %36

36:                                               ; preds = %r_post_proc.exit, %3
  %.0 = phi i64 [ %8, %3 ], [ %35, %r_post_proc.exit ]
  ret i64 %.0
}